target datalayout = "e-m:e-p270:32:32-p271:32:32-p272:64:64-i64:64-i128:128-f80:128-n8:16:32:64-S128"
target triple = "x86_64-pc-linux-gnu"

%struct.OutputPluginCallbacks = type { ptr, ptr, ptr, ptr, ptr, ptr, ptr, ptr, ptr, ptr, ptr, ptr, ptr, ptr, ptr, ptr, ptr, ptr, ptr, ptr, ptr }

; Function Attrs: nounwind uwtable
define void @_PG_output_plugin_init(ptr noundef %0) #0 {
  %2 = alloca ptr, align 8
  store ptr %0, ptr %2, align 8
  %3 = load ptr, ptr %2, align 8
  %4 = getelementptr inbounds nuw %struct.OutputPluginCallbacks, ptr %3, i32 0, i32 0
  store ptr @pgoutput_startup, ptr %4, align 8
  %5 = load ptr, ptr %2, align 8
  %6 = getelementptr inbounds nuw %struct.OutputPluginCallbacks, ptr %5, i32 0, i32 1
  store ptr @pgoutput_begin_txn, ptr %6, align 8
  %7 = load ptr, ptr %2, align 8
  %8 = getelementptr inbounds nuw %struct.OutputPluginCallbacks, ptr %7, i32 0, i32 2
  store ptr @pgoutput_change, ptr %8, align 8
  %9 = load ptr, ptr %2, align 8
  %10 = getelementptr inbounds nuw %struct.OutputPluginCallbacks, ptr %9, i32 0, i32 3
  store ptr @pgoutput_truncate, ptr %10, align 8
  %11 = load ptr, ptr %2, align 8
  %12 = getelementptr inbounds nuw %struct.OutputPluginCallbacks, ptr %11, i32 0, i32 5
  store ptr @pgoutput_message, ptr %12, align 8
  %13 = load ptr, ptr %2, align 8
  %14 = getelementptr inbounds nuw %struct.OutputPluginCallbacks, ptr %13, i32 0, i32 4
  store ptr @pgoutput_commit_txn, ptr %14, align 8
  %15 = load ptr, ptr %2, align 8
  %16 = getelementptr inbounds nuw %struct.OutputPluginCallbacks, ptr %15, i32 0, i32 9
  store ptr @pgoutput_begin_prepare_txn, ptr %16, align 8
  %17 = load ptr, ptr %2, align 8
  %18 = getelementptr inbounds nuw %struct.OutputPluginCallbacks, ptr %17, i32 0, i32 10
  store ptr @pgoutput_prepare_txn, ptr %18, align 8
  %19 = load ptr, ptr %2, align 8
  %20 = getelementptr inbounds nuw %struct.OutputPluginCallbacks, ptr %19, i32 0, i32 11
  store ptr @pgoutput_commit_prepared_txn, ptr %20, align 8
  %21 = load ptr, ptr %2, align 8
  %22 = getelementptr inbounds nuw %struct.OutputPluginCallbacks, ptr %21, i32 0, i32 12
  store ptr @pgoutput_rollback_prepared_txn, ptr %22, align 8
  %23 = load ptr, ptr %2, align 8
  %24 = getelementptr inbounds nuw %struct.OutputPluginCallbacks, ptr %23, i32 0, i32 6
  store ptr @pgoutput_origin_filter, ptr %24, align 8
  %25 = load ptr, ptr %2, align 8
  %26 = getelementptr inbounds nuw %struct.OutputPluginCallbacks, ptr %25, i32 0, i32 7
  store ptr @pgoutput_shutdown, ptr %26, align 8
  %27 = load ptr, ptr %2, align 8
  %28 = getelementptr inbounds nuw %struct.OutputPluginCallbacks, ptr %27, i32 0, i32 13
  store ptr @pgoutput_stream_start, ptr %28, align 8
  %29 = load ptr, ptr %2, align 8
  %30 = getelementptr inbounds nuw %struct.OutputPluginCallbacks, ptr %29, i32 0, i32 14
  store ptr @pgoutput_stream_stop, ptr %30, align 8
  %31 = load ptr, ptr %2, align 8
  %32 = getelementptr inbounds nuw %struct.OutputPluginCallbacks, ptr %31, i32 0, i32 15
  store ptr @pgoutput_stream_abort, ptr %32, align 8
  %33 = load ptr, ptr %2, align 8
  %34 = getelementptr inbounds nuw %struct.OutputPluginCallbacks, ptr %33, i32 0, i32 17
  store ptr @pgoutput_stream_commit, ptr %34, align 8
  %35 = load ptr, ptr %2, align 8
  %36 = getelementptr inbounds nuw %struct.OutputPluginCallbacks, ptr %35, i32 0, i32 18
  store ptr @pgoutput_change, ptr %36, align 8
  %37 = load ptr, ptr %2, align 8
  %38 = getelementptr inbounds nuw %struct.OutputPluginCallbacks, ptr %37, i32 0, i32 19
  store ptr @pgoutput_message, ptr %38, align 8
  %39 = load ptr, ptr %2, align 8
  %40 = getelementptr inbounds nuw %struct.OutputPluginCallbacks, ptr %39, i32 0, i32 20
  store ptr @pgoutput_truncate, ptr %40, align 8
  %41 = load ptr, ptr %2, align 8
  %42 = getelementptr inbounds nuw %struct.OutputPluginCallbacks, ptr %41, i32 0, i32 16
  store ptr @pgoutput_stream_prepare_txn, ptr %42, align 8
  ret void
}