; Function Attrs: mustprogress nofree norecurse nosync nounwind willreturn memory(argmem: write) uwtable
define void @_PG_output_plugin_init(ptr noundef writeonly captures(none) initializes((0, 64), (72, 168)) %0) local_unnamed_addr #1 {
  store ptr @pgoutput_startup, ptr %0, align 8
  %2 = getelementptr inbounds nuw i8, ptr %0, i64 8
  store ptr @pgoutput_begin_txn, ptr %2, align 8
  %3 = getelementptr inbounds nuw i8, ptr %0, i64 16
  store ptr @pgoutput_change, ptr %3, align 8
  %4 = getelementptr inbounds nuw i8, ptr %0, i64 24
  store ptr @pgoutput_truncate, ptr %4, align 8
  %5 = getelementptr inbounds nuw i8, ptr %0, i64 40
  store ptr @pgoutput_message, ptr %5, align 8
  %6 = getelementptr inbounds nuw i8, ptr %0, i64 32
  store ptr @pgoutput_commit_txn, ptr %6, align 8
  %7 = getelementptr inbounds nuw i8, ptr %0, i64 72
  store ptr @pgoutput_begin_prepare_txn, ptr %7, align 8
  %8 = getelementptr inbounds nuw i8, ptr %0, i64 80
  store ptr @pgoutput_prepare_txn, ptr %8, align 8
  %9 = getelementptr inbounds nuw i8, ptr %0, i64 88
  store ptr @pgoutput_commit_prepared_txn, ptr %9, align 8
  %10 = getelementptr inbounds nuw i8, ptr %0, i64 96
  store ptr @pgoutput_rollback_prepared_txn, ptr %10, align 8
  %11 = getelementptr inbounds nuw i8, ptr %0, i64 48
  store ptr @pgoutput_origin_filter, ptr %11, align 8
  %12 = getelementptr inbounds nuw i8, ptr %0, i64 56
  store ptr @pgoutput_shutdown, ptr %12, align 8
  %13 = getelementptr inbounds nuw i8, ptr %0, i64 104
  store ptr @pgoutput_stream_start, ptr %13, align 8
  %14 = getelementptr inbounds nuw i8, ptr %0, i64 112
  store ptr @pgoutput_stream_stop, ptr %14, align 8
  %15 = getelementptr inbounds nuw i8, ptr %0, i64 120
  store ptr @pgoutput_stream_abort, ptr %15, align 8
  %16 = getelementptr inbounds nuw i8, ptr %0, i64 136
  store ptr @pgoutput_stream_commit, ptr %16, align 8
  %17 = getelementptr inbounds nuw i8, ptr %0, i64 144
  store ptr @pgoutput_change, ptr %17, align 8
  %18 = getelementptr inbounds nuw i8, ptr %0, i64 152
  store ptr @pgoutput_message, ptr %18, align 8
  %19 = getelementptr inbounds nuw i8, ptr %0, i64 160
  store ptr @pgoutput_truncate, ptr %19, align 8
  %20 = getelementptr inbounds nuw i8, ptr %0, i64 128
  store ptr @pgoutput_stream_prepare_txn, ptr %20, align 8
  ret void
}